target datalayout = "e-m:e-p270:32:32-p271:32:32-p272:64:64-i64:64-i128:128-f80:128-n8:16:32:64-S128"
target triple = "x86_64-pc-linux-gnu"

%struct.Pdr_Man_t_ = type { ptr, ptr, ptr, ptr, ptr, ptr, ptr, ptr, %struct.Vec_Ptr_t_, ptr, i32, i32, ptr, ptr, ptr, ptr, ptr, ptr, i32, i32, ptr, ptr, ptr, i32, i32, ptr, ptr, ptr, ptr, ptr, ptr, ptr, ptr, ptr, ptr, ptr, ptr, ptr, ptr, i32, i32, i32, i32, i32, i32, i32, i32, i32, i32, i32, i32, i32, i32, i32, i32, i32, i64, i64, i64, i64, i64, i64, i64, i64, i64, i64, i64, i64 }
%struct.Vec_Ptr_t_ = type { i32, i32, ptr }
%struct.Vec_Vec_t_ = type { i32, i32, ptr }
%struct.Aig_Man_t_ = type { ptr, ptr, ptr, ptr, ptr, ptr, ptr, %struct.Aig_Obj_t_, i32, i32, i32, i32, i32, i32, [7 x i32], i32, ptr, i32, ptr, i32, ptr, i32, i32, i32, ptr, i32, i32, i32, i32, i32, ptr, ptr, i32, ptr, ptr, i32, ptr, ptr, i32, i32, i32, ptr, ptr, ptr, ptr, ptr, ptr, ptr, ptr, ptr, ptr, ptr, ptr, ptr, ptr, i32, ptr, ptr, ptr, ptr, i32, i64, i64, i64, ptr, ptr }
%struct.Aig_Obj_t_ = type { %union.anon, ptr, ptr, i64, i32, i32, %union.anon.0 }
%union.anon = type { ptr }
%union.anon.0 = type { ptr }

@.str.43 = private unnamed_addr constant [79 x i8] c"Invariant F[%d] : %d clauses with %d flops (out of %d) (cex = %d, ave = %.2f)\0A\00", align 1

; Function Attrs: nounwind uwtable
define internal ptr @Vec_VecEntry(ptr noundef %0, i32 noundef %1) #0 {
  %3 = alloca ptr, align 8
  %4 = alloca i32, align 4
  store ptr %0, ptr %3, align 8
  store i32 %1, ptr %4, align 4
  %5 = load ptr, ptr %3, align 8
  %6 = getelementptr inbounds %struct.Vec_Vec_t_, ptr %5, i32 0, i32 2
  %7 = load ptr, ptr %6, align 8
  %8 = load i32, ptr %4, align 4
  %9 = sext i32 %8 to i64
  %10 = getelementptr inbounds ptr, ptr %7, i64 %9
  %11 = load ptr, ptr %10, align 8
  ret ptr %11
}

; Function Attrs: nounwind uwtable
define internal void @Vec_PtrFree(ptr noundef %0) #0 {
  %2 = alloca ptr, align 8
  store ptr %0, ptr %2, align 8
  %3 = load ptr, ptr %2, align 8
  %4 = getelementptr inbounds %struct.Vec_Ptr_t_, ptr %3, i32 0, i32 2
  %5 = load ptr, ptr %4, align 8
  %6 = icmp ne ptr %5, null
  br i1 %6, label %7, label %13

7:                                                ; preds = %1
  %8 = load ptr, ptr %2, align 8
  %9 = getelementptr inbounds %struct.Vec_Ptr_t_, ptr %8, i32 0, i32 2
  %10 = load ptr, ptr %9, align 8
  call void @free(ptr noundef %10) #10
  %11 = load ptr, ptr %2, align 8
  %12 = getelementptr inbounds %struct.Vec_Ptr_t_, ptr %11, i32 0, i32 2
  store ptr null, ptr %12, align 8
  br label %14

13:                                               ; preds = %1
  br label %14

14:                                               ; preds = %13, %7
  %15 = load ptr, ptr %2, align 8
  %16 = icmp ne ptr %15, null
  br i1 %16, label %17, label %19

17:                                               ; preds = %14
  %18 = load ptr, ptr %2, align 8
  call void @free(ptr noundef %18) #10
  store ptr null, ptr %2, align 8
  br label %20

19:                                               ; preds = %14
  br label %20

20:                                               ; preds = %19, %17
  ret void
}

; Function Attrs: nounwind uwtable
define internal i32 @Aig_ManRegNum(ptr noundef %0) #0 {
  %2 = alloca ptr, align 8
  store ptr %0, ptr %2, align 8
  %3 = load ptr, ptr %2, align 8
  %4 = getelementptr inbounds %struct.Aig_Man_t_, ptr %3, i32 0, i32 8
  %5 = load i32, ptr %4, align 8
  ret i32 %5
}

; Function Attrs: nounwind uwtable
define internal i32 @Vec_PtrSize(ptr noundef %0) #0 {
  %2 = alloca ptr, align 8
  store ptr %0, ptr %2, align 8
  %3 = load ptr, ptr %2, align 8
  %4 = getelementptr inbounds %struct.Vec_Ptr_t_, ptr %3, i32 0, i32 1
  %5 = load i32, ptr %4, align 4
  ret i32 %5
}

; Function Attrs: nounwind uwtable
define i32 @Pdr_ManFindInvariantStart(ptr noundef %0) #0 {
  %2 = alloca i32, align 4
  %3 = alloca ptr, align 8
  %4 = alloca ptr, align 8
  %5 = alloca i32, align 4
  %6 = alloca i32, align 4
  store ptr %0, ptr %3, align 8
  %7 = load ptr, ptr %3, align 8
  %8 = getelementptr inbounds %struct.Pdr_Man_t_, ptr %7, i32 0, i32 13
  %9 = load ptr, ptr %8, align 8
  %10 = call i32 @Vec_PtrSize(ptr noundef %9)
  %11 = sub nsw i32 %10, 1
  store i32 %11, ptr %6, align 4
  store i32 1, ptr %5, align 4
  br label %12

12:                                               ; preds = %32, %1
  %13 = load i32, ptr %5, align 4
  %14 = load i32, ptr %6, align 4
  %15 = add nsw i32 %14, 1
  %16 = icmp slt i32 %13, %15
  br i1 %16, label %17, label %23

17:                                               ; preds = %12
  %18 = load ptr, ptr %3, align 8
  %19 = getelementptr inbounds %struct.Pdr_Man_t_, ptr %18, i32 0, i32 14
  %20 = load ptr, ptr %19, align 8
  %21 = load i32, ptr %5, align 4
  %22 = call ptr @Vec_VecEntry(ptr noundef %20, i32 noundef %21)
  store ptr %22, ptr %4, align 8
  br label %23

23:                                               ; preds = %17, %12
  %24 = phi i1 [ false, %12 ], [ true, %17 ]
  br i1 %24, label %25, label %35

25:                                               ; preds = %23
  %26 = load ptr, ptr %4, align 8
  %27 = call i32 @Vec_PtrSize(ptr noundef %26)
  %28 = icmp eq i32 %27, 0
  br i1 %28, label %29, label %31

29:                                               ; preds = %25
  %30 = load i32, ptr %5, align 4
  store i32 %30, ptr %2, align 4
  br label %37

31:                                               ; preds = %25
  br label %32

32:                                               ; preds = %31
  %33 = load i32, ptr %5, align 4
  %34 = add nsw i32 %33, 1
  store i32 %34, ptr %5, align 4
  br label %12, !llvm.loop !12

35:                                               ; preds = %23
  %36 = load i32, ptr %6, align 4
  store i32 %36, ptr %2, align 4
  br label %37

37:                                               ; preds = %35, %29
  %38 = load i32, ptr %2, align 4
  ret i32 %38
}

; Function Attrs: nounwind uwtable
define void @Pdr_ManReportInvariant(ptr noundef %0) #0 {
  %2 = alloca ptr, align 8
  %3 = alloca ptr, align 8
  %4 = alloca i32, align 4
  store ptr %0, ptr %2, align 8
  %5 = load ptr, ptr %2, align 8
  %6 = call i32 @Pdr_ManFindInvariantStart(ptr noundef %5)
  store i32 %6, ptr %4, align 4
  %7 = load ptr, ptr %2, align 8
  %8 = load i32, ptr %4, align 4
  %9 = call ptr @Pdr_ManCollectCubes(ptr noundef %7, i32 noundef %8)
  store ptr %9, ptr %3, align 8
  %10 = load i32, ptr %4, align 4
  %11 = load ptr, ptr %3, align 8
  %12 = call i32 @Vec_PtrSize(ptr noundef %11)
  %13 = load ptr, ptr %2, align 8
  %14 = load i32, ptr %4, align 4
  %15 = call i32 @Pdr_ManCountVariables(ptr noundef %13, i32 noundef %14)
  %16 = load ptr, ptr %2, align 8
  %17 = getelementptr inbounds %struct.Pdr_Man_t_, ptr %16, i32 0, i32 1
  %18 = load ptr, ptr %17, align 8
  %19 = call i32 @Aig_ManRegNum(ptr noundef %18)
  %20 = load ptr, ptr %2, align 8
  %21 = getelementptr inbounds %struct.Pdr_Man_t_, ptr %20, i32 0, i32 24
  %22 = load i32, ptr %21, align 4
  %23 = load ptr, ptr %2, align 8
  %24 = getelementptr inbounds %struct.Pdr_Man_t_, ptr %23, i32 0, i32 55
  %25 = load i32, ptr %24, align 8
  %26 = sitofp i32 %25 to double
  %27 = fmul double 1.000000e+00, %26
  %28 = load ptr, ptr %2, align 8
  %29 = getelementptr inbounds %struct.Pdr_Man_t_, ptr %28, i32 0, i32 54
  %30 = load i32, ptr %29, align 4
  %31 = sitofp i32 %30 to double
  %32 = fdiv double %27, %31
  call void (i32, ptr, ...) @Abc_Print(i32 noundef 1, ptr noundef @.str.43, i32 noundef %10, i32 noundef %12, i32 noundef %15, i32 noundef %19, i32 noundef %22, double noundef %32)
  %33 = load ptr, ptr %3, align 8
  call void @Vec_PtrFree(ptr noundef %33)
  ret void
}