; Function Attrs: nounwind uwtable
define void @Pdr_ManReportInvariant(ptr noundef readonly captures(none) %0) local_unnamed_addr #0 {
  %2 = getelementptr inbounds nuw i8, ptr %0, i64 104
  %3 = load ptr, ptr %2, align 8
  %4 = getelementptr i8, ptr %3, i64 4
  %.val10.i = load i32, ptr %4, align 4
  %5 = add nsw i32 %.val10.i, -1
  %6 = icmp sgt i32 %.val10.i, 1
  br i1 %6, label %.lr.ph.i, label %Pdr_ManFindInvariantStart.exit

.lr.ph.i:                                         ; preds = %1
  %7 = getelementptr inbounds nuw i8, ptr %0, i64 112
  %8 = load ptr, ptr %7, align 8
  %9 = getelementptr i8, ptr %8, i64 8
  %.val11.i = load ptr, ptr %9, align 8
  %wide.trip.count.i = zext nneg i32 %.val10.i to i64
  br label %10

10:                                               ; preds = %15, %.lr.ph.i
  %indvars.iv.i = phi i64 [ 1, %.lr.ph.i ], [ %indvars.iv.next.i, %15 ]
  %11 = getelementptr inbounds nuw ptr, ptr %.val11.i, i64 %indvars.iv.i
  %12 = load ptr, ptr %11, align 8
  %13 = getelementptr i8, ptr %12, i64 4
  %.val.i = load i32, ptr %13, align 4
  %14 = icmp eq i32 %.val.i, 0
  br i1 %14, label %.critedge.loopexit.split.loop.exit16.i, label %15

15:                                               ; preds = %10
  %indvars.iv.next.i = add nuw nsw i64 %indvars.iv.i, 1
  %exitcond.not.i = icmp eq i64 %indvars.iv.next.i, %wide.trip.count.i
  br i1 %exitcond.not.i, label %Pdr_ManFindInvariantStart.exit, label %10, !llvm.loop !12

.critedge.loopexit.split.loop.exit16.i:           ; preds = %10
  %16 = trunc nuw nsw i64 %indvars.iv.i to i32
  br label %Pdr_ManFindInvariantStart.exit

Pdr_ManFindInvariantStart.exit:                   ; preds = %15, %1, %.critedge.loopexit.split.loop.exit16.i
  %.0.i = phi i32 [ %5, %1 ], [ %16, %.critedge.loopexit.split.loop.exit16.i ], [ %5, %15 ]
  %17 = tail call ptr @Pdr_ManCollectCubes(ptr noundef %0, i32 noundef %.0.i)
  %18 = getelementptr i8, ptr %17, i64 4
  %.val = load i32, ptr %18, align 4
  %19 = tail call i32 @Pdr_ManCountVariables(ptr noundef %0, i32 noundef %.0.i)
  %20 = getelementptr inbounds nuw i8, ptr %0, i64 8
  %21 = load ptr, ptr %20, align 8
  %22 = getelementptr i8, ptr %21, i64 104
  %.val11 = load i32, ptr %22, align 8
  %23 = getelementptr inbounds nuw i8, ptr %0, i64 180
  %24 = load i32, ptr %23, align 4
  %25 = getelementptr inbounds nuw i8, ptr %0, i64 360
  %26 = load i32, ptr %25, align 8
  %27 = sitofp i32 %26 to double
  %28 = getelementptr inbounds nuw i8, ptr %0, i64 356
  %29 = load i32, ptr %28, align 4
  %30 = sitofp i32 %29 to double
  %31 = fdiv double %27, %30
  tail call void (i32, ptr, ...) @Abc_Print(i32 poison, ptr noundef nonnull @.str.43, i32 noundef %.0.i, i32 noundef %.val, i32 noundef %19, i32 noundef %.val11, i32 noundef %24, double noundef %31)
  %32 = getelementptr inbounds nuw i8, ptr %17, i64 8
  %33 = load ptr, ptr %32, align 8
  %.not.i = icmp eq ptr %33, null
  br i1 %.not.i, label %Vec_PtrFree.exit, label %34

34:                                               ; preds = %Pdr_ManFindInvariantStart.exit
  tail call void @free(ptr noundef nonnull %33) #18
  br label %Vec_PtrFree.exit

Vec_PtrFree.exit:                                 ; preds = %Pdr_ManFindInvariantStart.exit, %34
  tail call void @free(ptr noundef nonnull %17) #18
  ret void
}